; Function Attrs: mustprogress uwtable
define hidden void @_ZN11opencv_test23Size_MatType_hasNonZero12PerfTestBodyEv(ptr noundef nonnull align 8 dereferenceable(256) %0) unnamed_addr #3 align 2 personality ptr @__gxx_personality_v0 {
  %2 = alloca %"class.cv::Mat", align 8
  %3 = alloca %"class.cv::_InputOutputArray", align 8
  %4 = alloca %"class.cv::_InputArray", align 8
  %5 = getelementptr inbounds i8, ptr %0, i64 248
  %6 = tail call noundef nonnull align 4 dereferenceable(12) ptr @_ZNK7testing18WithParamInterfaceISt5tupleIJN2cv5Size_IiEEN4perf7MatTypeEEEE8GetParamEv(ptr noundef nonnull align 8 dereferenceable(8) %5)
  %7 = getelementptr inbounds i8, ptr %6, i64 4
  %.sroa.06.0.copyload = load i64, ptr %7, align 4
  %8 = tail call noundef nonnull align 4 dereferenceable(12) ptr @_ZNK7testing18WithParamInterfaceISt5tupleIJN2cv5Size_IiEEN4perf7MatTypeEEEE8GetParamEv(ptr noundef nonnull align 8 dereferenceable(8) %5)
  %9 = load i32, ptr %8, align 4
  call void @_ZN2cv3MatC1ENS_5Size_IiEEi(ptr noundef nonnull align 8 dereferenceable(96) %2, i64 %.sroa.06.0.copyload, i32 noundef %9)
  %10 = getelementptr inbounds i8, ptr %0, i64 240
  %11 = getelementptr inbounds i8, ptr %3, i64 8
  %12 = getelementptr inbounds i8, ptr %3, i64 16
  store i64 0, ptr %12, align 8
  store i32 50397184, ptr %3, align 8
  store ptr %2, ptr %11, align 8
  %13 = invoke noundef nonnull align 8 dereferenceable(8) ptr @_ZN4perf8TestBase14_declareHelper2inERKN2cv17_InputOutputArrayENS0_10WarmUpTypeE(ptr noundef nonnull align 8 dereferenceable(8) %10, ptr noundef nonnull align 8 dereferenceable(24) %3, i32 noundef 2)
          to label %14 unwind label %31

14:                                               ; preds = %1
  %15 = trunc i64 %.sroa.06.0.copyload to i32
  %16 = icmp slt i32 %15, 641
  %17 = select i1 %16, i32 8, i32 1
  %18 = invoke noundef nonnull align 8 dereferenceable(8) ptr @_ZN4perf8TestBase14_declareHelper4runsEj(ptr noundef nonnull align 8 dereferenceable(8) %10, i32 noundef %17)
          to label %.preheader11 unwind label %.loopexit.split-lp

.preheader11:                                     ; preds = %14
  %19 = getelementptr inbounds i8, ptr %4, i64 16
  %20 = getelementptr inbounds i8, ptr %4, i64 20
  %21 = getelementptr inbounds i8, ptr %4, i64 8
  br label %22

22:                                               ; preds = %.preheader11, %35
  %23 = invoke noundef zeroext i1 @_ZN4perf8TestBase4nextEv(ptr noundef nonnull align 8 dereferenceable(248) %0)
          to label %24 unwind label %.loopexit

24:                                               ; preds = %22
  br i1 %23, label %25, label %.critedge

25:                                               ; preds = %24
  %26 = invoke noundef zeroext i1 @_ZN4perf8TestBase10startTimerEv(ptr noundef nonnull align 8 dereferenceable(248) %0)
          to label %27 unwind label %.loopexit

27:                                               ; preds = %25
  br i1 %26, label %.preheader, label %.critedge

.preheader:                                       ; preds = %27, %29
  %.012 = phi i32 [ %30, %29 ], [ 0, %27 ]
  store i32 0, ptr %19, align 8
  store i32 0, ptr %20, align 4
  store i32 16842752, ptr %4, align 8
  store ptr %2, ptr %21, align 8
  %28 = invoke noundef zeroext i1 @_ZN2cv10hasNonZeroERKNS_11_InputArrayE(ptr noundef nonnull align 8 dereferenceable(24) %4)
          to label %29 unwind label %33

29:                                               ; preds = %.preheader
  %30 = add nuw nsw i32 %.012, 1
  %exitcond.not = icmp eq i32 %30, %17
  br i1 %exitcond.not, label %35, label %.preheader, !llvm.loop !47

.loopexit:                                        ; preds = %22, %25, %35
  %lpad.loopexit = landingpad { ptr, i32 }
          cleanup
  br label %37

.loopexit.split-lp:                               ; preds = %14
  %lpad.loopexit.split-lp = landingpad { ptr, i32 }
          cleanup
  br label %37

31:                                               ; preds = %1
  %32 = landingpad { ptr, i32 }
          cleanup
  br label %37

33:                                               ; preds = %.preheader
  %34 = landingpad { ptr, i32 }
          cleanup
  br label %37

35:                                               ; preds = %29
  invoke void @_ZN4perf8TestBase9stopTimerEv(ptr noundef nonnull align 8 dereferenceable(248) %0)
          to label %22 unwind label %.loopexit, !llvm.loop !48

.critedge:                                        ; preds = %24, %27
  %36 = getelementptr inbounds i8, ptr %0, i64 232
  store i8 1, ptr %36, align 8
  call void @_ZN2cv3MatD1Ev(ptr noundef nonnull align 8 dereferenceable(96) %2) #25
  ret void

37:                                               ; preds = %.loopexit, %.loopexit.split-lp, %33, %31
  %.pn = phi { ptr, i32 } [ %34, %33 ], [ %32, %31 ], [ %lpad.loopexit, %.loopexit ], [ %lpad.loopexit.split-lp, %.loopexit.split-lp ]
  call void @_ZN2cv3MatD1Ev(ptr noundef nonnull align 8 dereferenceable(96) %2) #25
  resume { ptr, i32 } %.pn
}